target datalayout = "e-m:e-p270:32:32-p271:32:32-p272:64:64-i64:64-i128:128-f80:128-n8:16:32:64-S128"
target triple = "x86_64-pc-linux-gnu"

%struct._zval_struct = type { %union._zend_value, %union.anon, %union.anon.2 }
%union._zend_value = type { i64 }
%union.anon = type { i32 }
%union.anon.2 = type { i32 }
%struct.passwd = type { ptr, ptr, i32, i32, ptr, ptr, ptr }

@.str.17 = private unnamed_addr constant [5 x i8] c"name\00", align 1
@.str.18 = private unnamed_addr constant [7 x i8] c"passwd\00", align 1
@.str.20 = private unnamed_addr constant [4 x i8] c"gid\00", align 1
@.str.24 = private unnamed_addr constant [4 x i8] c"uid\00", align 1
@.str.25 = private unnamed_addr constant [6 x i8] c"gecos\00", align 1
@.str.26 = private unnamed_addr constant [4 x i8] c"dir\00", align 1
@.str.27 = private unnamed_addr constant [6 x i8] c"shell\00", align 1

; Function Attrs: nounwind uwtable
define hidden i32 @php_posix_passwd_to_array(ptr noundef %0, ptr noundef %1) #0 {
  %3 = alloca ptr, align 8
  %4 = alloca ptr, align 8
  %5 = alloca ptr, align 8
  %6 = alloca i64, align 8
  %7 = alloca ptr, align 8
  %8 = alloca ptr, align 8
  %9 = alloca i64, align 8
  %10 = alloca ptr, align 8
  %11 = alloca ptr, align 8
  %12 = alloca ptr, align 8
  %13 = alloca ptr, align 8
  %14 = alloca ptr, align 8
  %15 = alloca ptr, align 8
  %16 = alloca ptr, align 8
  %17 = alloca ptr, align 8
  %18 = alloca ptr, align 8
  %19 = alloca ptr, align 8
  %20 = alloca ptr, align 8
  %21 = alloca ptr, align 8
  %22 = alloca ptr, align 8
  %23 = alloca ptr, align 8
  %24 = alloca ptr, align 8
  %25 = alloca i32, align 4
  %26 = alloca ptr, align 8
  %27 = alloca ptr, align 8
  store ptr %0, ptr %26, align 8
  store ptr %1, ptr %27, align 8
  %28 = load ptr, ptr %26, align 8
  %29 = icmp eq ptr null, %28
  br i1 %29, label %30, label %31

30:                                               ; preds = %2
  store i32 0, ptr %25, align 4
  br label %108

31:                                               ; preds = %2
  %32 = load ptr, ptr %27, align 8
  %33 = icmp eq ptr null, %32
  br i1 %33, label %41, label %34

34:                                               ; preds = %31
  %35 = load ptr, ptr %27, align 8
  store ptr %35, ptr %3, align 8
  %36 = load ptr, ptr %3, align 8
  %37 = getelementptr inbounds %struct._zval_struct, ptr %36, i32 0, i32 1
  %38 = load i8, ptr %37, align 8
  %39 = zext i8 %38 to i32
  %40 = icmp ne i32 %39, 7
  br i1 %40, label %41, label %42

41:                                               ; preds = %34, %31
  store i32 0, ptr %25, align 4
  br label %108

42:                                               ; preds = %34
  %43 = load ptr, ptr %27, align 8
  %44 = load ptr, ptr %26, align 8
  %45 = getelementptr inbounds %struct.passwd, ptr %44, i32 0, i32 0
  %46 = load ptr, ptr %45, align 8
  store ptr %43, ptr %10, align 8
  store ptr @.str.17, ptr %11, align 8
  store ptr %46, ptr %12, align 8
  %47 = load ptr, ptr %10, align 8
  %48 = load ptr, ptr %11, align 8
  %49 = load ptr, ptr %11, align 8
  %50 = call i64 @strlen(ptr noundef %49) #12
  %51 = load ptr, ptr %12, align 8
  call void @add_assoc_string_ex(ptr noundef %47, ptr noundef %48, i64 noundef %50, ptr noundef %51) #9
  %52 = load ptr, ptr %27, align 8
  %53 = load ptr, ptr %26, align 8
  %54 = getelementptr inbounds %struct.passwd, ptr %53, i32 0, i32 1
  %55 = load ptr, ptr %54, align 8
  store ptr %52, ptr %13, align 8
  store ptr @.str.18, ptr %14, align 8
  store ptr %55, ptr %15, align 8
  %56 = load ptr, ptr %13, align 8
  %57 = load ptr, ptr %14, align 8
  %58 = load ptr, ptr %14, align 8
  %59 = call i64 @strlen(ptr noundef %58) #12
  %60 = load ptr, ptr %15, align 8
  call void @add_assoc_string_ex(ptr noundef %56, ptr noundef %57, i64 noundef %59, ptr noundef %60) #9
  %61 = load ptr, ptr %27, align 8
  %62 = load ptr, ptr %26, align 8
  %63 = getelementptr inbounds %struct.passwd, ptr %62, i32 0, i32 2
  %64 = load i32, ptr %63, align 8
  %65 = zext i32 %64 to i64
  store ptr %61, ptr %4, align 8
  store ptr @.str.24, ptr %5, align 8
  store i64 %65, ptr %6, align 8
  %66 = load ptr, ptr %4, align 8
  %67 = load ptr, ptr %5, align 8
  %68 = load ptr, ptr %5, align 8
  %69 = call i64 @strlen(ptr noundef %68) #12
  %70 = load i64, ptr %6, align 8
  call void @add_assoc_long_ex(ptr noundef %66, ptr noundef %67, i64 noundef %69, i64 noundef %70) #9
  %71 = load ptr, ptr %27, align 8
  %72 = load ptr, ptr %26, align 8
  %73 = getelementptr inbounds %struct.passwd, ptr %72, i32 0, i32 3
  %74 = load i32, ptr %73, align 4
  %75 = zext i32 %74 to i64
  store ptr %71, ptr %7, align 8
  store ptr @.str.20, ptr %8, align 8
  store i64 %75, ptr %9, align 8
  %76 = load ptr, ptr %7, align 8
  %77 = load ptr, ptr %8, align 8
  %78 = load ptr, ptr %8, align 8
  %79 = call i64 @strlen(ptr noundef %78) #12
  %80 = load i64, ptr %9, align 8
  call void @add_assoc_long_ex(ptr noundef %76, ptr noundef %77, i64 noundef %79, i64 noundef %80) #9
  %81 = load ptr, ptr %27, align 8
  %82 = load ptr, ptr %26, align 8
  %83 = getelementptr inbounds %struct.passwd, ptr %82, i32 0, i32 4
  %84 = load ptr, ptr %83, align 8
  store ptr %81, ptr %16, align 8
  store ptr @.str.25, ptr %17, align 8
  store ptr %84, ptr %18, align 8
  %85 = load ptr, ptr %16, align 8
  %86 = load ptr, ptr %17, align 8
  %87 = load ptr, ptr %17, align 8
  %88 = call i64 @strlen(ptr noundef %87) #12
  %89 = load ptr, ptr %18, align 8
  call void @add_assoc_string_ex(ptr noundef %85, ptr noundef %86, i64 noundef %88, ptr noundef %89) #9
  %90 = load ptr, ptr %27, align 8
  %91 = load ptr, ptr %26, align 8
  %92 = getelementptr inbounds %struct.passwd, ptr %91, i32 0, i32 5
  %93 = load ptr, ptr %92, align 8
  store ptr %90, ptr %19, align 8
  store ptr @.str.26, ptr %20, align 8
  store ptr %93, ptr %21, align 8
  %94 = load ptr, ptr %19, align 8
  %95 = load ptr, ptr %20, align 8
  %96 = load ptr, ptr %20, align 8
  %97 = call i64 @strlen(ptr noundef %96) #12
  %98 = load ptr, ptr %21, align 8
  call void @add_assoc_string_ex(ptr noundef %94, ptr noundef %95, i64 noundef %97, ptr noundef %98) #9
  %99 = load ptr, ptr %27, align 8
  %100 = load ptr, ptr %26, align 8
  %101 = getelementptr inbounds %struct.passwd, ptr %100, i32 0, i32 6
  %102 = load ptr, ptr %101, align 8
  store ptr %99, ptr %22, align 8
  store ptr @.str.27, ptr %23, align 8
  store ptr %102, ptr %24, align 8
  %103 = load ptr, ptr %22, align 8
  %104 = load ptr, ptr %23, align 8
  %105 = load ptr, ptr %23, align 8
  %106 = call i64 @strlen(ptr noundef %105) #12
  %107 = load ptr, ptr %24, align 8
  call void @add_assoc_string_ex(ptr noundef %103, ptr noundef %104, i64 noundef %106, ptr noundef %107) #9
  store i32 1, ptr %25, align 4
  br label %108

108:                                              ; preds = %42, %41, %30
  %109 = load i32, ptr %25, align 4
  ret i32 %109
}