; Function Attrs: nounwind uwtable
define hidden noundef i32 @php_posix_passwd_to_array(ptr noundef readonly %0, ptr noundef %1) local_unnamed_addr #0 {
  %3 = icmp eq ptr %0, null
  %4 = icmp eq ptr %1, null
  %or.cond = or i1 %3, %4
  br i1 %or.cond, label %24, label %5

5:                                                ; preds = %2
  %6 = getelementptr inbounds i8, ptr %1, i64 8
  %7 = load i8, ptr %6, align 8
  %.not = icmp eq i8 %7, 7
  br i1 %.not, label %8, label %24

8:                                                ; preds = %5
  %9 = load ptr, ptr %0, align 8
  tail call void @add_assoc_string_ex(ptr noundef nonnull %1, ptr noundef nonnull @.str.17, i64 noundef 4, ptr noundef %9) #11
  %10 = getelementptr inbounds i8, ptr %0, i64 8
  %11 = load ptr, ptr %10, align 8
  tail call void @add_assoc_string_ex(ptr noundef nonnull %1, ptr noundef nonnull @.str.18, i64 noundef 6, ptr noundef %11) #11
  %12 = getelementptr inbounds i8, ptr %0, i64 16
  %13 = load i32, ptr %12, align 8
  %14 = zext i32 %13 to i64
  tail call void @add_assoc_long_ex(ptr noundef nonnull %1, ptr noundef nonnull @.str.24, i64 noundef 3, i64 noundef %14) #11
  %15 = getelementptr inbounds i8, ptr %0, i64 20
  %16 = load i32, ptr %15, align 4
  %17 = zext i32 %16 to i64
  tail call void @add_assoc_long_ex(ptr noundef nonnull %1, ptr noundef nonnull @.str.20, i64 noundef 3, i64 noundef %17) #11
  %18 = getelementptr inbounds i8, ptr %0, i64 24
  %19 = load ptr, ptr %18, align 8
  tail call void @add_assoc_string_ex(ptr noundef nonnull %1, ptr noundef nonnull @.str.25, i64 noundef 5, ptr noundef %19) #11
  %20 = getelementptr inbounds i8, ptr %0, i64 32
  %21 = load ptr, ptr %20, align 8
  tail call void @add_assoc_string_ex(ptr noundef nonnull %1, ptr noundef nonnull @.str.26, i64 noundef 3, ptr noundef %21) #11
  %22 = getelementptr inbounds i8, ptr %0, i64 40
  %23 = load ptr, ptr %22, align 8
  tail call void @add_assoc_string_ex(ptr noundef nonnull %1, ptr noundef nonnull @.str.27, i64 noundef 5, ptr noundef %23) #11
  br label %24

24:                                               ; preds = %5, %2, %8
  %.0 = phi i32 [ 1, %8 ], [ 0, %2 ], [ 0, %5 ]
  ret i32 %.0
}